; Function Attrs: mustprogress uwtable
define void @_ZNK8QuantLib15FDVanillaEngine26initializeInitialConditionEv(ptr noundef nonnull align 8 dereferenceable(240) %this) unnamed_addr #2 align 2 {
entry:
  %intrinsicValues_ = getelementptr inbounds nuw i8, ptr %this, i64 160
  %sMin_ = getelementptr inbounds nuw i8, ptr %this, i64 216
  %0 = load double, ptr %sMin_, align 8, !tbaa !36
  %sMax_ = getelementptr inbounds nuw i8, ptr %this, i64 232
  %1 = load double, ptr %sMax_, align 8, !tbaa !54
  tail call void @_ZN8QuantLib12SampledCurve10setLogGridEdd(ptr noundef nonnull align 8 dereferenceable(32) %intrinsicValues_, double noundef %0, double noundef %1)
  %payoff_ = getelementptr inbounds nuw i8, ptr %this, i64 56
  %2 = load ptr, ptr %payoff_, align 8, !tbaa !25
  %cmp.not.i = icmp eq ptr %2, null
  br i1 %cmp.not.i, label %cond.false.i, label %_ZNK5boost10shared_ptrIN8QuantLib6PayoffEEdeEv.exit, !prof !20

cond.false.i:                                     ; preds = %entry
  tail call void @_ZN5boost16assertion_failedEPKcS1_S1_l(ptr noundef nonnull @.str.13, ptr noundef nonnull @__PRETTY_FUNCTION__._ZNK5boost10shared_ptrIN8QuantLib6PayoffEEdeEv, ptr noundef nonnull @.str.14, i64 noundef 778)
  %.pre.i = load ptr, ptr %payoff_, align 8, !tbaa !25
  br label %_ZNK5boost10shared_ptrIN8QuantLib6PayoffEEdeEv.exit

_ZNK5boost10shared_ptrIN8QuantLib6PayoffEEdeEv.exit: ; preds = %entry, %cond.false.i
  %3 = phi ptr [ %2, %entry ], [ %.pre.i, %cond.false.i ]
  %n_.i.i = getelementptr inbounds nuw i8, ptr %this, i64 168
  %4 = load i64, ptr %n_.i.i, align 8, !tbaa !60
  %cmp.not5.i = icmp eq i64 %4, 0
  br i1 %cmp.not5.i, label %_ZN8QuantLib12SampledCurve6sampleINS_6PayoffEEEvRKT_.exit, label %for.body.preheader.i

for.body.preheader.i:                             ; preds = %_ZNK5boost10shared_ptrIN8QuantLib6PayoffEEdeEv.exit
  %values_.i = getelementptr inbounds nuw i8, ptr %this, i64 176
  %5 = load ptr, ptr %values_.i, align 8, !tbaa !58
  %6 = load ptr, ptr %intrinsicValues_, align 8, !tbaa !58
  br label %for.body.i

for.body.i:                                       ; preds = %for.body.i, %for.body.preheader.i
  %j.07.i = phi ptr [ %incdec.ptr6.i, %for.body.i ], [ %5, %for.body.preheader.i ]
  %i.06.i = phi ptr [ %incdec.ptr.i, %for.body.i ], [ %6, %for.body.preheader.i ]
  %7 = load double, ptr %i.06.i, align 8, !tbaa !67
  %vtable.i = load ptr, ptr %3, align 8, !tbaa !14
  %vfn.i = getelementptr inbounds i8, ptr %vtable.i, i64 32
  %8 = load ptr, ptr %vfn.i, align 8
  %call5.i = tail call noundef double %8(ptr noundef nonnull align 8 dereferenceable(8) %3, double noundef %7)
  store double %call5.i, ptr %j.07.i, align 8, !tbaa !67
  %incdec.ptr.i = getelementptr inbounds nuw i8, ptr %i.06.i, i64 8
  %incdec.ptr6.i = getelementptr inbounds nuw i8, ptr %j.07.i, i64 8
  %9 = load ptr, ptr %intrinsicValues_, align 8, !tbaa !58
  %10 = load i64, ptr %n_.i.i, align 8, !tbaa !60
  %add.ptr.i.i = getelementptr inbounds nuw double, ptr %9, i64 %10
  %cmp.not.i1 = icmp eq ptr %incdec.ptr.i, %add.ptr.i.i
  br i1 %cmp.not.i1, label %_ZN8QuantLib12SampledCurve6sampleINS_6PayoffEEEvRKT_.exit, label %for.body.i, !llvm.loop !68

_ZN8QuantLib12SampledCurve6sampleINS_6PayoffEEEvRKT_.exit: ; preds = %for.body.i, %_ZNK5boost10shared_ptrIN8QuantLib6PayoffEEdeEv.exit
  ret void
}